; Function Attrs: nofree nounwind uwtable
define noalias noundef ptr @Acec_MapMajOuts2(ptr noundef readonly captures(none) %0, ptr noundef readonly captures(none) %1, ptr noundef readonly captures(none) %2) local_unnamed_addr #3 {
  %4 = getelementptr i8, ptr %0, i64 24
  %.val = load i32, ptr %4, align 8, !tbaa !3
  %5 = tail call noalias dereferenceable_or_null(16) ptr @malloc(i64 noundef 16) #20
  %6 = add i32 %.val, -1
  %or.cond.i.i = icmp ult i32 %6, 15
  %spec.store.select.i.i = select i1 %or.cond.i.i, i32 16, i32 %.val
  %7 = getelementptr inbounds nuw i8, ptr %5, i64 4
  store i32 %spec.store.select.i.i, ptr %5, align 8, !tbaa !33
  %.not.i.i = icmp eq i32 %spec.store.select.i.i, 0
  br i1 %.not.i.i, label %Vec_IntAlloc.exit.thread.i, label %Vec_IntAlloc.exit.i

Vec_IntAlloc.exit.thread.i:                       ; preds = %3
  %8 = getelementptr inbounds nuw i8, ptr %5, i64 8
  store ptr null, ptr %8, align 8, !tbaa !29
  store i32 %.val, ptr %7, align 4, !tbaa !28
  br label %Vec_IntStartFull.exit

Vec_IntAlloc.exit.i:                              ; preds = %3
  %9 = sext i32 %spec.store.select.i.i to i64
  %10 = shl nsw i64 %9, 2
  %11 = tail call noalias ptr @malloc(i64 noundef %10) #20
  %12 = getelementptr inbounds nuw i8, ptr %5, i64 8
  store ptr %11, ptr %12, align 8, !tbaa !29
  store i32 %.val, ptr %7, align 4, !tbaa !28
  %.not.i = icmp eq ptr %11, null
  br i1 %.not.i, label %Vec_IntStartFull.exit, label %13

13:                                               ; preds = %Vec_IntAlloc.exit.i
  %14 = sext i32 %.val to i64
  %15 = shl nsw i64 %14, 2
  tail call void @llvm.memset.p0.i64(ptr nonnull align 4 %11, i8 -1, i64 %15, i1 false)
  br label %Vec_IntStartFull.exit

Vec_IntStartFull.exit:                            ; preds = %Vec_IntAlloc.exit.thread.i, %Vec_IntAlloc.exit.i, %13
  %.val16 = phi ptr [ null, %Vec_IntAlloc.exit.thread.i ], [ null, %Vec_IntAlloc.exit.i ], [ %11, %13 ]
  %16 = getelementptr i8, ptr %1, i64 4
  %.val1217 = load i32, ptr %16, align 4, !tbaa !28
  %17 = icmp sgt i32 %.val1217, 0
  br i1 %17, label %.lr.ph, label %._crit_edge

.lr.ph:                                           ; preds = %Vec_IntStartFull.exit
  %18 = getelementptr i8, ptr %1, i64 8
  %.val15 = load ptr, ptr %18, align 8, !tbaa !29
  %invariant.gep = getelementptr inbounds nuw i8, ptr %.val15, i64 16
  %19 = getelementptr i8, ptr %2, i64 8
  %.val14 = load ptr, ptr %19, align 8, !tbaa !29
  br label %20

20:                                               ; preds = %.lr.ph, %30
  %indvars.iv = phi i64 [ 0, %.lr.ph ], [ %indvars.iv.next, %30 ]
  %21 = phi i64 [ 0, %.lr.ph ], [ %31, %30 ]
  %22 = and i64 %21, 4294967294
  %gep = getelementptr inbounds nuw i32, ptr %invariant.gep, i64 %22
  %23 = load i32, ptr %gep, align 4, !tbaa !30
  %24 = sext i32 %23 to i64
  %25 = getelementptr inbounds i32, ptr %.val14, i64 %24
  %26 = load i32, ptr %25, align 4, !tbaa !30
  %.not = icmp eq i32 %26, -1
  br i1 %.not, label %30, label %27

27:                                               ; preds = %20
  %28 = getelementptr inbounds i32, ptr %.val16, i64 %24
  %29 = trunc nuw nsw i64 %indvars.iv to i32
  store i32 %29, ptr %28, align 4, !tbaa !30
  br label %30

30:                                               ; preds = %20, %27
  %indvars.iv.next = add nuw nsw i64 %indvars.iv, 1
  %31 = mul nuw nsw i64 %indvars.iv.next, 6
  %32 = trunc nuw i64 %31 to i32
  %33 = icmp sgt i32 %.val1217, %32
  br i1 %33, label %20, label %._crit_edge, !llvm.loop !46

._crit_edge:                                      ; preds = %30, %Vec_IntStartFull.exit
  ret ptr %5
}